target datalayout = "e-m:e-p270:32:32-p271:32:32-p272:64:64-i64:64-i128:128-f80:128-n8:16:32:64-S128"
target triple = "x86_64-pc-linux-gnu"

%struct.H5T_t = type { %struct.H5O_shared_t, ptr, %struct.H5O_loc_t, %struct.H5G_name_t, ptr }
%struct.H5O_shared_t = type { i32, ptr, i32, %union.anon }
%union.anon = type { %struct.H5O_mesg_loc_t }
%struct.H5O_mesg_loc_t = type { i32, i64 }
%struct.H5O_loc_t = type { ptr, i64, i8 }
%struct.H5G_name_t = type { ptr, ptr, i32 }
%struct.H5T_shared_t = type { i64, i32, i32, i64, i32, i8, ptr, ptr, %union.anon.0 }
%union.anon.0 = type { %struct.H5T_array_t }
%struct.H5T_array_t = type { i64, i32, [32 x i64] }
%struct.H5VL_object_t = type { ptr, ptr, i64 }

@.str.2 = private unnamed_addr constant [97 x i8] c"generated/home/dtcxzyw/WorkSpace/Projects/compilers/llvm-opt-benchmark/bench/hdf5/hdf5/src/H5T.c\00", align 1
@H5E_DATATYPE_g = external global i64, align 8
@H5E_CANTINIT_g = external global i64, align 8
@H5E_ARGS_g = external global i64, align 8
@H5E_BADTYPE_g = external global i64, align 8
@.str.12 = private unnamed_addr constant [15 x i8] c"not a datatype\00", align 1
@H5_libinit_g = external global i8, align 1
@H5_libterm_g = external global i8, align 1
@H5E_FUNC_g = external global i64, align 8
@.str.221 = private unnamed_addr constant [30 x i8] c"library initialization failed\00", align 1
@H5E_CANTSET_g = external global i64, align 8
@.str.222 = private unnamed_addr constant [22 x i8] c"can't set API context\00", align 1
@H5E_BADVALUE_g = external global i64, align 8
@H5E_CANTGET_g = external global i64, align 8
@H5E_BADID_g = external global i64, align 8
@.str.234 = private unnamed_addr constant [19 x i8] c"immutable datatype\00", align 1
@H5E_ID_g = external global i64, align 8
@.str.235 = private unnamed_addr constant [19 x i8] c"problem freeing id\00", align 1
@__func__.H5Tclose_async = private unnamed_addr constant [15 x i8] c"H5Tclose_async\00", align 1
@.str.236 = private unnamed_addr constant [33 x i8] c"can't get VOL object for dataset\00", align 1
@.str.237 = private unnamed_addr constant [9 x i8] c"*s*sIuii\00", align 1
@.str.238 = private unnamed_addr constant [9 x i8] c"app_file\00", align 1
@.str.239 = private unnamed_addr constant [9 x i8] c"app_func\00", align 1
@.str.240 = private unnamed_addr constant [9 x i8] c"app_line\00", align 1
@.str.241 = private unnamed_addr constant [8 x i8] c"type_id\00", align 1
@.str.242 = private unnamed_addr constant [6 x i8] c"es_id\00", align 1
@H5E_CANTINSERT_g = external global i64, align 8
@.str.243 = private unnamed_addr constant [34 x i8] c"can't insert token into event set\00", align 1
@H5E_CANTDEC_g = external global i64, align 8
@.str.244 = private unnamed_addr constant [39 x i8] c"can't decrement ref count on connector\00", align 1

; Function Attrs: nounwind uwtable
define i32 @H5Tclose_async(ptr noundef %0, ptr noundef %1, i32 noundef %2, i64 noundef %3, i64 noundef %4) #0 {
  %6 = alloca ptr, align 8
  %7 = alloca ptr, align 8
  %8 = alloca i32, align 4
  %9 = alloca i64, align 8
  %10 = alloca i64, align 8
  %11 = alloca ptr, align 8
  %12 = alloca ptr, align 8
  %13 = alloca ptr, align 8
  %14 = alloca ptr, align 8
  %15 = alloca ptr, align 8
  %16 = alloca i32, align 4
  %17 = alloca i8, align 1
  %18 = alloca i8, align 1
  store ptr %0, ptr %6, align 8
  store ptr %1, ptr %7, align 8
  store i32 %2, ptr %8, align 4
  store i64 %3, ptr %9, align 8
  store i64 %4, ptr %10, align 8
  store ptr null, ptr %12, align 8
  store ptr null, ptr %13, align 8
  store ptr null, ptr %14, align 8
  store ptr null, ptr %15, align 8
  store i32 0, ptr %16, align 4
  store i8 0, ptr %17, align 1
  store i8 0, ptr %18, align 1
  %19 = load i8, ptr @H5_libinit_g, align 1
  %20 = trunc i8 %19 to i1
  br i1 %20, label %25, label %21

21:                                               ; preds = %5
  %22 = load i8, ptr @H5_libterm_g, align 1
  %23 = trunc i8 %22 to i1
  %24 = xor i1 %23, true
  br label %25

25:                                               ; preds = %21, %5
  %26 = phi i1 [ false, %5 ], [ %24, %21 ]
  %27 = xor i1 %26, true
  %28 = xor i1 %27, true
  %29 = zext i1 %28 to i32
  %30 = sext i32 %29 to i64
  %31 = icmp ne i64 %30, 0
  br i1 %31, label %32, label %56

32:                                               ; preds = %25
  %33 = call i32 @H5_init_library()
  %34 = icmp slt i32 %33, 0
  %35 = xor i1 %34, true
  %36 = xor i1 %35, true
  %37 = zext i1 %36 to i32
  %38 = sext i32 %37 to i64
  %39 = icmp ne i64 %38, 0
  br i1 %39, label %40, label %55

40:                                               ; preds = %32
  br label %41

41:                                               ; preds = %40
  br label %42

42:                                               ; preds = %41
  br label %43

43:                                               ; preds = %42
  %44 = load i64, ptr @H5E_FUNC_g, align 8
  %45 = load i64, ptr @H5E_CANTINIT_g, align 8
  %46 = call i32 (ptr, ptr, i32, i64, i64, ptr, ...) @H5E_printf_stack(ptr noundef @.str.2, ptr noundef @__func__.H5Tclose_async, i32 noundef 2095, i64 noundef %44, i64 noundef %45, ptr noundef @.str.221)
  br label %47

47:                                               ; preds = %43
  store i8 1, ptr %18, align 1
  %48 = load i8, ptr %18, align 1
  %49 = trunc i8 %48 to i1
  %50 = zext i1 %49 to i8
  store i8 %50, ptr %18, align 1
  br label %51

51:                                               ; preds = %47
  br label %52

52:                                               ; preds = %51
  store i32 -1, ptr %16, align 4
  br label %203

53:                                               ; No predecessors!
  br label %54

54:                                               ; preds = %53
  br label %55

55:                                               ; preds = %54, %32
  br label %56

56:                                               ; preds = %55, %25
  %57 = call i32 @H5CX_push()
  %58 = icmp slt i32 %57, 0
  %59 = xor i1 %58, true
  %60 = xor i1 %59, true
  %61 = zext i1 %60 to i32
  %62 = sext i32 %61 to i64
  %63 = icmp ne i64 %62, 0
  br i1 %63, label %64, label %79

64:                                               ; preds = %56
  br label %65

65:                                               ; preds = %64
  br label %66

66:                                               ; preds = %65
  br label %67

67:                                               ; preds = %66
  %68 = load i64, ptr @H5E_FUNC_g, align 8
  %69 = load i64, ptr @H5E_CANTSET_g, align 8
  %70 = call i32 (ptr, ptr, i32, i64, i64, ptr, ...) @H5E_printf_stack(ptr noundef @.str.2, ptr noundef @__func__.H5Tclose_async, i32 noundef 2095, i64 noundef %68, i64 noundef %69, ptr noundef @.str.222)
  br label %71

71:                                               ; preds = %67
  store i8 1, ptr %18, align 1
  %72 = load i8, ptr %18, align 1
  %73 = trunc i8 %72 to i1
  %74 = zext i1 %73 to i8
  store i8 %74, ptr %18, align 1
  br label %75

75:                                               ; preds = %71
  br label %76

76:                                               ; preds = %75
  store i32 -1, ptr %16, align 4
  br label %203

77:                                               ; No predecessors!
  br label %78

78:                                               ; preds = %77
  br label %80

79:                                               ; preds = %56
  store i8 1, ptr %17, align 1
  br label %80

80:                                               ; preds = %79, %78
  %81 = call i32 @H5E_clear_stack()
  %82 = load i64, ptr %9, align 8
  %83 = call ptr @H5I_object_verify(i64 noundef %82, i32 noundef 3)
  store ptr %83, ptr %11, align 8
  %84 = icmp eq ptr null, %83
  br i1 %84, label %85, label %100

85:                                               ; preds = %80
  br label %86

86:                                               ; preds = %85
  br label %87

87:                                               ; preds = %86
  br label %88

88:                                               ; preds = %87
  %89 = load i64, ptr @H5E_ARGS_g, align 8
  %90 = load i64, ptr @H5E_BADTYPE_g, align 8
  %91 = call i32 (ptr, ptr, i32, i64, i64, ptr, ...) @H5E_printf_stack(ptr noundef @.str.2, ptr noundef @__func__.H5Tclose_async, i32 noundef 2099, i64 noundef %89, i64 noundef %90, ptr noundef @.str.12)
  br label %92

92:                                               ; preds = %88
  store i8 1, ptr %18, align 1
  %93 = load i8, ptr %18, align 1
  %94 = trunc i8 %93 to i1
  %95 = zext i1 %94 to i8
  store i8 %95, ptr %18, align 1
  br label %96

96:                                               ; preds = %92
  br label %97

97:                                               ; preds = %96
  store i32 -1, ptr %16, align 4
  br label %203

98:                                               ; No predecessors!
  br label %99

99:                                               ; preds = %98
  br label %100

100:                                              ; preds = %99, %80
  %101 = load ptr, ptr %11, align 8
  %102 = getelementptr inbounds %struct.H5T_t, ptr %101, i32 0, i32 1
  %103 = load ptr, ptr %102, align 8
  %104 = getelementptr inbounds %struct.H5T_shared_t, ptr %103, i32 0, i32 1
  %105 = load i32, ptr %104, align 8
  %106 = icmp eq i32 2, %105
  br i1 %106, label %107, label %122

107:                                              ; preds = %100
  br label %108

108:                                              ; preds = %107
  br label %109

109:                                              ; preds = %108
  br label %110

110:                                              ; preds = %109
  %111 = load i64, ptr @H5E_ARGS_g, align 8
  %112 = load i64, ptr @H5E_BADVALUE_g, align 8
  %113 = call i32 (ptr, ptr, i32, i64, i64, ptr, ...) @H5E_printf_stack(ptr noundef @.str.2, ptr noundef @__func__.H5Tclose_async, i32 noundef 2101, i64 noundef %111, i64 noundef %112, ptr noundef @.str.234)
  br label %114

114:                                              ; preds = %110
  store i8 1, ptr %18, align 1
  %115 = load i8, ptr %18, align 1
  %116 = trunc i8 %115 to i1
  %117 = zext i1 %116 to i8
  store i8 %117, ptr %18, align 1
  br label %118

118:                                              ; preds = %114
  br label %119

119:                                              ; preds = %118
  store i32 -1, ptr %16, align 4
  br label %203

120:                                              ; No predecessors!
  br label %121

121:                                              ; preds = %120
  br label %122

122:                                              ; preds = %121, %100
  %123 = load i64, ptr %9, align 8
  %124 = call ptr @H5VL_vol_object(i64 noundef %123)
  store ptr %124, ptr %14, align 8
  %125 = icmp eq ptr null, %124
  br i1 %125, label %126, label %141

126:                                              ; preds = %122
  br label %127

127:                                              ; preds = %126
  br label %128

128:                                              ; preds = %127
  br label %129

129:                                              ; preds = %128
  %130 = load i64, ptr @H5E_DATATYPE_g, align 8
  %131 = load i64, ptr @H5E_CANTGET_g, align 8
  %132 = call i32 (ptr, ptr, i32, i64, i64, ptr, ...) @H5E_printf_stack(ptr noundef @.str.2, ptr noundef @__func__.H5Tclose_async, i32 noundef 2105, i64 noundef %130, i64 noundef %131, ptr noundef @.str.236)
  br label %133

133:                                              ; preds = %129
  store i8 1, ptr %18, align 1
  %134 = load i8, ptr %18, align 1
  %135 = trunc i8 %134 to i1
  %136 = zext i1 %135 to i8
  store i8 %136, ptr %18, align 1
  br label %137

137:                                              ; preds = %133
  br label %138

138:                                              ; preds = %137
  store i32 -1, ptr %16, align 4
  br label %203

139:                                              ; No predecessors!
  br label %140

140:                                              ; preds = %139
  br label %141

141:                                              ; preds = %140, %122
  %142 = load i64, ptr %10, align 8
  %143 = icmp ne i64 0, %142
  br i1 %143, label %144, label %150

144:                                              ; preds = %141
  %145 = load ptr, ptr %14, align 8
  %146 = getelementptr inbounds %struct.H5VL_object_t, ptr %145, i32 0, i32 1
  %147 = load ptr, ptr %146, align 8
  store ptr %147, ptr %15, align 8
  %148 = load ptr, ptr %15, align 8
  %149 = call i64 @H5VL_conn_inc_rc(ptr noundef %148)
  store ptr %12, ptr %13, align 8
  br label %150

150:                                              ; preds = %144, %141
  %151 = load i64, ptr %9, align 8
  %152 = load ptr, ptr %13, align 8
  %153 = call i32 @H5I_dec_app_ref_async(i64 noundef %151, ptr noundef %152)
  %154 = icmp slt i32 %153, 0
  br i1 %154, label %155, label %170

155:                                              ; preds = %150
  br label %156

156:                                              ; preds = %155
  br label %157

157:                                              ; preds = %156
  br label %158

158:                                              ; preds = %157
  %159 = load i64, ptr @H5E_ID_g, align 8
  %160 = load i64, ptr @H5E_BADID_g, align 8
  %161 = call i32 (ptr, ptr, i32, i64, i64, ptr, ...) @H5E_printf_stack(ptr noundef @.str.2, ptr noundef @__func__.H5Tclose_async, i32 noundef 2120, i64 noundef %159, i64 noundef %160, ptr noundef @.str.235)
  br label %162

162:                                              ; preds = %158
  store i8 1, ptr %18, align 1
  %163 = load i8, ptr %18, align 1
  %164 = trunc i8 %163 to i1
  %165 = zext i1 %164 to i8
  store i8 %165, ptr %18, align 1
  br label %166

166:                                              ; preds = %162
  br label %167

167:                                              ; preds = %166
  store i32 -1, ptr %16, align 4
  br label %203

168:                                              ; No predecessors!
  br label %169

169:                                              ; preds = %168
  br label %170

170:                                              ; preds = %169, %150
  %171 = load ptr, ptr %12, align 8
  %172 = icmp ne ptr null, %171
  br i1 %172, label %173, label %202

173:                                              ; preds = %170
  %174 = load i64, ptr %10, align 8
  %175 = load ptr, ptr %14, align 8
  %176 = getelementptr inbounds %struct.H5VL_object_t, ptr %175, i32 0, i32 1
  %177 = load ptr, ptr %176, align 8
  %178 = load ptr, ptr %12, align 8
  %179 = load ptr, ptr %6, align 8
  %180 = load ptr, ptr %7, align 8
  %181 = load i32, ptr %8, align 4
  %182 = load i64, ptr %9, align 8
  %183 = load i64, ptr %10, align 8
  %184 = call i32 (i64, ptr, ptr, ptr, ptr, ...) @H5ES_insert(i64 noundef %174, ptr noundef %177, ptr noundef %178, ptr noundef @__func__.H5Tclose_async, ptr noundef @.str.237, ptr noundef @.str.238, ptr noundef %179, ptr noundef @.str.239, ptr noundef %180, ptr noundef @.str.240, i32 noundef %181, ptr noundef @.str.241, i64 noundef %182, ptr noundef @.str.242, i64 noundef %183)
  %185 = icmp slt i32 %184, 0
  br i1 %185, label %186, label %201

186:                                              ; preds = %173
  br label %187

187:                                              ; preds = %186
  br label %188

188:                                              ; preds = %187
  br label %189

189:                                              ; preds = %188
  %190 = load i64, ptr @H5E_DATATYPE_g, align 8
  %191 = load i64, ptr @H5E_CANTINSERT_g, align 8
  %192 = call i32 (ptr, ptr, i32, i64, i64, ptr, ...) @H5E_printf_stack(ptr noundef @.str.2, ptr noundef @__func__.H5Tclose_async, i32 noundef 2126, i64 noundef %190, i64 noundef %191, ptr noundef @.str.243)
  br label %193

193:                                              ; preds = %189
  store i8 1, ptr %18, align 1
  %194 = load i8, ptr %18, align 1
  %195 = trunc i8 %194 to i1
  %196 = zext i1 %195 to i8
  store i8 %196, ptr %18, align 1
  br label %197

197:                                              ; preds = %193
  br label %198

198:                                              ; preds = %197
  store i32 -1, ptr %16, align 4
  br label %203

199:                                              ; No predecessors!
  br label %200

200:                                              ; preds = %199
  br label %201

201:                                              ; preds = %200, %173
  br label %202

202:                                              ; preds = %201, %170
  br label %203

203:                                              ; preds = %202, %198, %167, %138, %119, %97, %76, %52
  %204 = load ptr, ptr %15, align 8
  %205 = icmp ne ptr %204, null
  br i1 %205, label %206, label %223

206:                                              ; preds = %203
  %207 = load ptr, ptr %15, align 8
  %208 = call i64 @H5VL_conn_dec_rc(ptr noundef %207)
  %209 = icmp slt i64 %208, 0
  br i1 %209, label %210, label %223

210:                                              ; preds = %206
  br label %211

211:                                              ; preds = %210
  br label %212

212:                                              ; preds = %211
  br label %213

213:                                              ; preds = %212
  %214 = load i64, ptr @H5E_DATATYPE_g, align 8
  %215 = load i64, ptr @H5E_CANTDEC_g, align 8
  %216 = call i32 (ptr, ptr, i32, i64, i64, ptr, ...) @H5E_printf_stack(ptr noundef @.str.2, ptr noundef @__func__.H5Tclose_async, i32 noundef 2130, i64 noundef %214, i64 noundef %215, ptr noundef @.str.244)
  br label %217

217:                                              ; preds = %213
  store i8 1, ptr %18, align 1
  %218 = load i8, ptr %18, align 1
  %219 = trunc i8 %218 to i1
  %220 = zext i1 %219 to i8
  store i8 %220, ptr %18, align 1
  br label %221

221:                                              ; preds = %217
  store i32 -1, ptr %16, align 4
  br label %222

222:                                              ; preds = %221
  br label %223

223:                                              ; preds = %222, %206, %203
  %224 = load i8, ptr %17, align 1
  %225 = trunc i8 %224 to i1
  %226 = xor i1 %225, true
  %227 = xor i1 %226, true
  %228 = zext i1 %227 to i32
  %229 = sext i32 %228 to i64
  %230 = icmp ne i64 %229, 0
  br i1 %230, label %231, label %233

231:                                              ; preds = %223
  %232 = call i32 @H5CX_pop(i1 noundef zeroext true)
  store i8 0, ptr %17, align 1
  br label %233

233:                                              ; preds = %231, %223
  %234 = load i8, ptr %18, align 1
  %235 = trunc i8 %234 to i1
  %236 = xor i1 %235, true
  %237 = xor i1 %236, true
  %238 = zext i1 %237 to i32
  %239 = sext i32 %238 to i64
  %240 = icmp ne i64 %239, 0
  br i1 %240, label %241, label %243

241:                                              ; preds = %233
  %242 = call i32 @H5E_dump_api_stack()
  br label %243

243:                                              ; preds = %241, %233
  %244 = load i32, ptr %16, align 4
  ret i32 %244
}