; Function Attrs: nounwind uwtable
define range(i32 -1, 1) i32 @H5Tclose_async(ptr noundef %0, ptr noundef %1, i32 noundef %2, i64 noundef %3, i64 noundef %4) local_unnamed_addr #0 {
  %6 = alloca ptr, align 8
  store ptr null, ptr %6, align 8
  %7 = load i8, ptr @H5_libinit_g, align 1
  %8 = trunc i8 %7 to i1
  %9 = load i8, ptr @H5_libterm_g, align 1
  %10 = trunc i8 %9 to i1
  %11 = select i1 %8, i1 true, i1 %10
  br i1 %11, label %19, label %12

12:                                               ; preds = %5
  %13 = tail call i32 @H5_init_library() #17
  %14 = icmp slt i32 %13, 0
  br i1 %14, label %15, label %19

15:                                               ; preds = %12
  %16 = load i64, ptr @H5E_FUNC_g, align 8
  %17 = load i64, ptr @H5E_CANTINIT_g, align 8
  %18 = tail call i32 (ptr, ptr, i32, i64, i64, ptr, ...) @H5E_printf_stack(ptr noundef nonnull @.str.2, ptr noundef nonnull @__func__.H5Tclose_async, i32 noundef 2095, i64 noundef %16, i64 noundef %17, ptr noundef nonnull @.str.221) #17
  br label %.thread57

19:                                               ; preds = %12, %5
  %20 = tail call i32 @H5CX_push() #17
  %21 = icmp slt i32 %20, 0
  br i1 %21, label %22, label %26

22:                                               ; preds = %19
  %23 = load i64, ptr @H5E_FUNC_g, align 8
  %24 = load i64, ptr @H5E_CANTSET_g, align 8
  %25 = tail call i32 (ptr, ptr, i32, i64, i64, ptr, ...) @H5E_printf_stack(ptr noundef nonnull @.str.2, ptr noundef nonnull @__func__.H5Tclose_async, i32 noundef 2095, i64 noundef %23, i64 noundef %24, ptr noundef nonnull @.str.222) #17
  br label %.thread57

26:                                               ; preds = %19
  %27 = tail call i32 @H5E_clear_stack() #17
  %28 = tail call ptr @H5I_object_verify(i64 noundef %3, i32 noundef 3) #17
  %29 = icmp eq ptr %28, null
  br i1 %29, label %30, label %34

30:                                               ; preds = %26
  %31 = load i64, ptr @H5E_ARGS_g, align 8
  %32 = load i64, ptr @H5E_BADTYPE_g, align 8
  %33 = tail call i32 (ptr, ptr, i32, i64, i64, ptr, ...) @H5E_printf_stack(ptr noundef nonnull @.str.2, ptr noundef nonnull @__func__.H5Tclose_async, i32 noundef 2099, i64 noundef %31, i64 noundef %32, ptr noundef nonnull @.str.12) #17
  br label %.thread62

34:                                               ; preds = %26
  %35 = getelementptr inbounds i8, ptr %28, i64 40
  %36 = load ptr, ptr %35, align 8
  %37 = getelementptr inbounds i8, ptr %36, i64 8
  %38 = load i32, ptr %37, align 8
  %39 = icmp eq i32 %38, 2
  br i1 %39, label %40, label %44

40:                                               ; preds = %34
  %41 = load i64, ptr @H5E_ARGS_g, align 8
  %42 = load i64, ptr @H5E_BADVALUE_g, align 8
  %43 = tail call i32 (ptr, ptr, i32, i64, i64, ptr, ...) @H5E_printf_stack(ptr noundef nonnull @.str.2, ptr noundef nonnull @__func__.H5Tclose_async, i32 noundef 2101, i64 noundef %41, i64 noundef %42, ptr noundef nonnull @.str.234) #17
  br label %.thread62

44:                                               ; preds = %34
  %45 = tail call ptr @H5VL_vol_object(i64 noundef %3) #17
  %46 = icmp eq ptr %45, null
  br i1 %46, label %47, label %51

47:                                               ; preds = %44
  %48 = load i64, ptr @H5E_DATATYPE_g, align 8
  %49 = load i64, ptr @H5E_CANTGET_g, align 8
  %50 = tail call i32 (ptr, ptr, i32, i64, i64, ptr, ...) @H5E_printf_stack(ptr noundef nonnull @.str.2, ptr noundef nonnull @__func__.H5Tclose_async, i32 noundef 2105, i64 noundef %48, i64 noundef %49, ptr noundef nonnull @.str.236) #17
  br label %.thread62

51:                                               ; preds = %44
  %.not = icmp eq i64 %4, 0
  br i1 %.not, label %56, label %52

52:                                               ; preds = %51
  %53 = getelementptr inbounds i8, ptr %45, i64 8
  %54 = load ptr, ptr %53, align 8
  %55 = tail call i64 @H5VL_conn_inc_rc(ptr noundef %54) #17
  br label %56

56:                                               ; preds = %52, %51
  %.032 = phi ptr [ %6, %52 ], [ null, %51 ]
  %.030 = phi ptr [ %54, %52 ], [ null, %51 ]
  %57 = call i32 @H5I_dec_app_ref_async(i64 noundef %3, ptr noundef %.032) #17
  %58 = icmp slt i32 %57, 0
  br i1 %58, label %59, label %63

59:                                               ; preds = %56
  %60 = load i64, ptr @H5E_ID_g, align 8
  %61 = load i64, ptr @H5E_BADID_g, align 8
  %62 = call i32 (ptr, ptr, i32, i64, i64, ptr, ...) @H5E_printf_stack(ptr noundef nonnull @.str.2, ptr noundef nonnull @__func__.H5Tclose_async, i32 noundef 2120, i64 noundef %60, i64 noundef %61, ptr noundef nonnull @.str.235) #17
  br label %74

63:                                               ; preds = %56
  %64 = load ptr, ptr %6, align 8
  %.not36 = icmp eq ptr %64, null
  br i1 %.not36, label %74, label %65

65:                                               ; preds = %63
  %66 = getelementptr inbounds i8, ptr %45, i64 8
  %67 = load ptr, ptr %66, align 8
  %68 = call i32 (i64, ptr, ptr, ptr, ptr, ...) @H5ES_insert(i64 noundef %4, ptr noundef %67, ptr noundef nonnull %64, ptr noundef nonnull @__func__.H5Tclose_async, ptr noundef nonnull @.str.237, ptr noundef nonnull @.str.238, ptr noundef %0, ptr noundef nonnull @.str.239, ptr noundef %1, ptr noundef nonnull @.str.240, i32 noundef %2, ptr noundef nonnull @.str.241, i64 noundef %3, ptr noundef nonnull @.str.242, i64 noundef %4) #17
  %69 = icmp slt i32 %68, 0
  br i1 %69, label %70, label %74

70:                                               ; preds = %65
  %71 = load i64, ptr @H5E_DATATYPE_g, align 8
  %72 = load i64, ptr @H5E_CANTINSERT_g, align 8
  %73 = call i32 (ptr, ptr, i32, i64, i64, ptr, ...) @H5E_printf_stack(ptr noundef nonnull @.str.2, ptr noundef nonnull @__func__.H5Tclose_async, i32 noundef 2126, i64 noundef %71, i64 noundef %72, ptr noundef nonnull @.str.243) #17
  br label %74

74:                                               ; preds = %63, %65, %70, %59
  %.028 = phi i32 [ -1, %59 ], [ -1, %70 ], [ 0, %65 ], [ 0, %63 ]
  %.0 = phi i1 [ true, %59 ], [ true, %70 ], [ false, %65 ], [ false, %63 ]
  %.not37 = icmp eq ptr %.030, null
  br i1 %.not37, label %83, label %75

75:                                               ; preds = %74
  %76 = call i64 @H5VL_conn_dec_rc(ptr noundef nonnull %.030) #17
  %77 = icmp slt i64 %76, 0
  br i1 %77, label %.thread65, label %83

.thread65:                                        ; preds = %75
  %78 = load i64, ptr @H5E_DATATYPE_g, align 8
  %79 = load i64, ptr @H5E_CANTDEC_g, align 8
  %80 = call i32 (ptr, ptr, i32, i64, i64, ptr, ...) @H5E_printf_stack(ptr noundef nonnull @.str.2, ptr noundef nonnull @__func__.H5Tclose_async, i32 noundef 2130, i64 noundef %78, i64 noundef %79, ptr noundef nonnull @.str.244) #17
  %81 = call i32 @H5CX_pop(i1 noundef zeroext true) #17
  br label %.thread57

.thread62:                                        ; preds = %30, %40, %47
  %82 = tail call i32 @H5CX_pop(i1 noundef zeroext true) #17
  br label %.thread57

83:                                               ; preds = %75, %74
  %84 = call i32 @H5CX_pop(i1 noundef zeroext true) #17
  br i1 %.0, label %.thread57, label %86

.thread57:                                        ; preds = %22, %15, %.thread65, %.thread62, %83
  %.1294961 = phi i32 [ %.028, %83 ], [ -1, %.thread62 ], [ -1, %.thread65 ], [ -1, %15 ], [ -1, %22 ]
  %85 = call i32 @H5E_dump_api_stack() #17
  br label %86

86:                                               ; preds = %.thread57, %83
  %.1294960 = phi i32 [ %.1294961, %.thread57 ], [ %.028, %83 ]
  ret i32 %.1294960
}